target datalayout = "e-m:e-p270:32:32-p271:32:32-p272:64:64-i64:64-i128:128-f80:128-n8:16:32:64-S128"
target triple = "x86_64-pc-linux-gnu"

%struct.Vec_Ptr_t_ = type { i32, i32, ptr }

@.str = private unnamed_addr constant [39 x i8] c"Node = %6s : Supp = %3d  Cone = %3d  (\00", align 1
@.str.1 = private unnamed_addr constant [4 x i8] c" %s\00", align 1
@.str.2 = private unnamed_addr constant [4 x i8] c" )\0A\00", align 1

; Function Attrs: nounwind uwtable
define internal void @Vec_PtrFree(ptr noundef %0) #0 {
  %2 = alloca ptr, align 8
  store ptr %0, ptr %2, align 8
  %3 = load ptr, ptr %2, align 8
  %4 = getelementptr inbounds %struct.Vec_Ptr_t_, ptr %3, i32 0, i32 2
  %5 = load ptr, ptr %4, align 8
  %6 = icmp ne ptr %5, null
  br i1 %6, label %7, label %13

7:                                                ; preds = %1
  %8 = load ptr, ptr %2, align 8
  %9 = getelementptr inbounds %struct.Vec_Ptr_t_, ptr %8, i32 0, i32 2
  %10 = load ptr, ptr %9, align 8
  call void @free(ptr noundef %10) #6
  %11 = load ptr, ptr %2, align 8
  %12 = getelementptr inbounds %struct.Vec_Ptr_t_, ptr %11, i32 0, i32 2
  store ptr null, ptr %12, align 8
  br label %14

13:                                               ; preds = %1
  br label %14

14:                                               ; preds = %13, %7
  %15 = load ptr, ptr %2, align 8
  %16 = icmp ne ptr %15, null
  br i1 %16, label %17, label %19

17:                                               ; preds = %14
  %18 = load ptr, ptr %2, align 8
  call void @free(ptr noundef %18) #6
  store ptr null, ptr %2, align 8
  br label %20

19:                                               ; preds = %14
  br label %20

20:                                               ; preds = %19, %17
  ret void
}

; Function Attrs: nounwind uwtable
define internal ptr @Vec_PtrEntry(ptr noundef %0, i32 noundef %1) #0 {
  %3 = alloca ptr, align 8
  %4 = alloca i32, align 4
  store ptr %0, ptr %3, align 8
  store i32 %1, ptr %4, align 4
  %5 = load ptr, ptr %3, align 8
  %6 = getelementptr inbounds %struct.Vec_Ptr_t_, ptr %5, i32 0, i32 2
  %7 = load ptr, ptr %6, align 8
  %8 = load i32, ptr %4, align 4
  %9 = sext i32 %8 to i64
  %10 = getelementptr inbounds ptr, ptr %7, i64 %9
  %11 = load ptr, ptr %10, align 8
  ret ptr %11
}

; Function Attrs: nounwind uwtable
define internal i32 @Vec_PtrSize(ptr noundef %0) #0 {
  %2 = alloca ptr, align 8
  store ptr %0, ptr %2, align 8
  %3 = load ptr, ptr %2, align 8
  %4 = getelementptr inbounds %struct.Vec_Ptr_t_, ptr %3, i32 0, i32 1
  %5 = load i32, ptr %4, align 4
  ret i32 %5
}

; Function Attrs: nounwind uwtable
define internal ptr @Vec_PtrAlloc(i32 noundef %0) #0 {
  %2 = alloca i32, align 4
  %3 = alloca ptr, align 8
  store i32 %0, ptr %2, align 4
  %4 = call noalias ptr @malloc(i64 noundef 16) #5
  store ptr %4, ptr %3, align 8
  %5 = load i32, ptr %2, align 4
  %6 = icmp sgt i32 %5, 0
  br i1 %6, label %7, label %11

7:                                                ; preds = %1
  %8 = load i32, ptr %2, align 4
  %9 = icmp slt i32 %8, 8
  br i1 %9, label %10, label %11

10:                                               ; preds = %7
  store i32 8, ptr %2, align 4
  br label %11

11:                                               ; preds = %10, %7, %1
  %12 = load ptr, ptr %3, align 8
  %13 = getelementptr inbounds %struct.Vec_Ptr_t_, ptr %12, i32 0, i32 1
  store i32 0, ptr %13, align 4
  %14 = load i32, ptr %2, align 4
  %15 = load ptr, ptr %3, align 8
  %16 = getelementptr inbounds %struct.Vec_Ptr_t_, ptr %15, i32 0, i32 0
  store i32 %14, ptr %16, align 8
  %17 = load ptr, ptr %3, align 8
  %18 = getelementptr inbounds %struct.Vec_Ptr_t_, ptr %17, i32 0, i32 0
  %19 = load i32, ptr %18, align 8
  %20 = icmp ne i32 %19, 0
  br i1 %20, label %21, label %28

21:                                               ; preds = %11
  %22 = load ptr, ptr %3, align 8
  %23 = getelementptr inbounds %struct.Vec_Ptr_t_, ptr %22, i32 0, i32 0
  %24 = load i32, ptr %23, align 8
  %25 = sext i32 %24 to i64
  %26 = mul i64 8, %25
  %27 = call noalias ptr @malloc(i64 noundef %26) #5
  br label %29

28:                                               ; preds = %11
  br label %29

29:                                               ; preds = %28, %21
  %30 = phi ptr [ %27, %21 ], [ null, %28 ]
  %31 = load ptr, ptr %3, align 8
  %32 = getelementptr inbounds %struct.Vec_Ptr_t_, ptr %31, i32 0, i32 2
  store ptr %30, ptr %32, align 8
  %33 = load ptr, ptr %3, align 8
  ret ptr %33
}

; Function Attrs: nounwind uwtable
define void @Abc_NodeMffcConeSuppPrint(ptr noundef %0) #0 {
  %2 = alloca ptr, align 8
  %3 = alloca ptr, align 8
  %4 = alloca ptr, align 8
  %5 = alloca ptr, align 8
  %6 = alloca i32, align 4
  store ptr %0, ptr %2, align 8
  %7 = call ptr @Vec_PtrAlloc(i32 noundef 100)
  store ptr %7, ptr %3, align 8
  %8 = call ptr @Vec_PtrAlloc(i32 noundef 100)
  store ptr %8, ptr %4, align 8
  %9 = load ptr, ptr %2, align 8
  %10 = call i32 @Abc_NodeDeref_rec(ptr noundef %9)
  %11 = load ptr, ptr %2, align 8
  %12 = load ptr, ptr %3, align 8
  %13 = load ptr, ptr %4, align 8
  call void @Abc_NodeMffcConeSupp(ptr noundef %11, ptr noundef %12, ptr noundef %13)
  %14 = load ptr, ptr %2, align 8
  %15 = call i32 @Abc_NodeRef_rec(ptr noundef %14)
  %16 = load ptr, ptr %2, align 8
  %17 = call ptr @Abc_ObjName(ptr noundef %16)
  %18 = load ptr, ptr %4, align 8
  %19 = call i32 @Vec_PtrSize(ptr noundef %18)
  %20 = load ptr, ptr %3, align 8
  %21 = call i32 @Vec_PtrSize(ptr noundef %20)
  %22 = call i32 (ptr, ...) @printf(ptr noundef @.str, ptr noundef %17, i32 noundef %19, i32 noundef %21)
  store i32 0, ptr %6, align 4
  br label %23

23:                                               ; preds = %38, %1
  %24 = load i32, ptr %6, align 4
  %25 = load ptr, ptr %3, align 8
  %26 = call i32 @Vec_PtrSize(ptr noundef %25)
  %27 = icmp slt i32 %24, %26
  br i1 %27, label %28, label %32

28:                                               ; preds = %23
  %29 = load ptr, ptr %3, align 8
  %30 = load i32, ptr %6, align 4
  %31 = call ptr @Vec_PtrEntry(ptr noundef %29, i32 noundef %30)
  store ptr %31, ptr %5, align 8
  br label %32

32:                                               ; preds = %28, %23
  %33 = phi i1 [ false, %23 ], [ true, %28 ]
  br i1 %33, label %34, label %41

34:                                               ; preds = %32
  %35 = load ptr, ptr %5, align 8
  %36 = call ptr @Abc_ObjName(ptr noundef %35)
  %37 = call i32 (ptr, ...) @printf(ptr noundef @.str.1, ptr noundef %36)
  br label %38

38:                                               ; preds = %34
  %39 = load i32, ptr %6, align 4
  %40 = add nsw i32 %39, 1
  store i32 %40, ptr %6, align 4
  br label %23, !llvm.loop !8

41:                                               ; preds = %32
  %42 = call i32 (ptr, ...) @printf(ptr noundef @.str.2)
  %43 = load ptr, ptr %3, align 8
  call void @Vec_PtrFree(ptr noundef %43)
  %44 = load ptr, ptr %4, align 8
  call void @Vec_PtrFree(ptr noundef %44)
  ret void
}