; Function Attrs: nounwind uwtable
define void @Abc_NodeMffcConeSuppPrint(ptr noundef %0) local_unnamed_addr #0 {
  %2 = tail call noalias dereferenceable_or_null(16) ptr @malloc(i64 noundef 16) #9
  %3 = getelementptr inbounds nuw i8, ptr %2, i64 4
  store i32 0, ptr %3, align 4
  store i32 100, ptr %2, align 8
  %4 = tail call noalias dereferenceable_or_null(800) ptr @malloc(i64 noundef 800) #9
  %5 = getelementptr inbounds nuw i8, ptr %2, i64 8
  store ptr %4, ptr %5, align 8
  %6 = tail call noalias dereferenceable_or_null(16) ptr @malloc(i64 noundef 16) #9
  %7 = getelementptr inbounds nuw i8, ptr %6, i64 4
  store i32 0, ptr %7, align 4
  store i32 100, ptr %6, align 8
  %8 = tail call noalias dereferenceable_or_null(800) ptr @malloc(i64 noundef 800) #9
  %9 = getelementptr inbounds nuw i8, ptr %6, i64 8
  store ptr %8, ptr %9, align 8
  %10 = tail call i32 @Abc_NodeDeref_rec(ptr noundef %0)
  tail call void @Abc_NodeMffcConeSupp(ptr noundef %0, ptr noundef nonnull %2, ptr noundef nonnull %6)
  %11 = tail call i32 @Abc_NodeRef_rec(ptr noundef %0)
  %12 = tail call ptr @Abc_ObjName(ptr noundef %0) #10
  %.val = load i32, ptr %7, align 4
  %.val15 = load i32, ptr %3, align 4
  %13 = tail call i32 (ptr, ...) @printf(ptr noundef nonnull dereferenceable(1) @.str, ptr noundef %12, i32 noundef %.val, i32 noundef %.val15)
  %.val1620 = load i32, ptr %3, align 4
  %14 = icmp sgt i32 %.val1620, 0
  br i1 %14, label %.lr.ph, label %.critedge

.lr.ph:                                           ; preds = %1, %.lr.ph
  %indvars.iv = phi i64 [ %indvars.iv.next, %.lr.ph ], [ 0, %1 ]
  %.val17 = load ptr, ptr %5, align 8
  %15 = getelementptr inbounds nuw ptr, ptr %.val17, i64 %indvars.iv
  %16 = load ptr, ptr %15, align 8
  %17 = tail call ptr @Abc_ObjName(ptr noundef %16) #10
  %18 = tail call i32 (ptr, ...) @printf(ptr noundef nonnull dereferenceable(1) @.str.1, ptr noundef %17)
  %indvars.iv.next = add nuw nsw i64 %indvars.iv, 1
  %.val16 = load i32, ptr %3, align 4
  %19 = sext i32 %.val16 to i64
  %20 = icmp slt i64 %indvars.iv.next, %19
  br i1 %20, label %.lr.ph, label %.critedge, !llvm.loop !9

.critedge:                                        ; preds = %.lr.ph, %1
  %puts = tail call i32 @puts(ptr nonnull dereferenceable(1) @str)
  %21 = load ptr, ptr %5, align 8
  %.not.i = icmp eq ptr %21, null
  br i1 %.not.i, label %Vec_PtrFree.exit, label %22

22:                                               ; preds = %.critedge
  tail call void @free(ptr noundef nonnull %21) #10
  br label %Vec_PtrFree.exit

Vec_PtrFree.exit:                                 ; preds = %.critedge, %22
  tail call void @free(ptr noundef nonnull %2) #10
  %23 = load ptr, ptr %9, align 8
  %.not.i18 = icmp eq ptr %23, null
  br i1 %.not.i18, label %Vec_PtrFree.exit19, label %24

24:                                               ; preds = %Vec_PtrFree.exit
  tail call void @free(ptr noundef nonnull %23) #10
  br label %Vec_PtrFree.exit19

Vec_PtrFree.exit19:                               ; preds = %Vec_PtrFree.exit, %24
  tail call void @free(ptr noundef nonnull %6) #10
  ret void
}